target datalayout = "e-m:e-p270:32:32-p271:32:32-p272:64:64-i64:64-i128:128-f80:128-n8:16:32:64-S128"
target triple = "x86_64-pc-linux-gnu"

%struct.DecoderInstance = type { i32, i32, i32, i32 }
%struct.FLAC__StreamMetadata = type { i32, i32, i32, %union.anon }
%union.anon = type { %struct.FLAC__StreamMetadata_CueSheet }
%struct.FLAC__StreamMetadata_CueSheet = type { [129 x i8], i64, i32, i32, ptr }
%struct.FLAC__StreamMetadata_StreamInfo = type { i32, i32, i32, i32, i32, i32, i32, i64, [16 x i8] }

; Function Attrs: nounwind sspstrong uwtable
define dso_local i32 @grabbag__replaygain_is_valid_sample_frequency(i32 noundef %0) #0 {
  %2 = alloca i32, align 4
  store i32 %0, ptr %2, align 4, !tbaa !4
  %3 = load i32, ptr %2, align 4, !tbaa !4
  %4 = zext i32 %3 to i64
  %5 = call i32 @ValidGainFrequency(i64 noundef %4)
  ret i32 %5
}

; Function Attrs: nounwind sspstrong uwtable
define internal void @metadata_callback_(ptr noundef %0, ptr noundef %1, ptr noundef %2) #0 {
  %4 = alloca ptr, align 8
  %5 = alloca ptr, align 8
  %6 = alloca ptr, align 8
  %7 = alloca ptr, align 8
  %8 = alloca i32, align 4
  store ptr %0, ptr %4, align 8, !tbaa !30
  store ptr %1, ptr %5, align 8, !tbaa !44
  store ptr %2, ptr %6, align 8, !tbaa !30
  call void @llvm.lifetime.start.p0(i64 8, ptr %7) #8
  %9 = load ptr, ptr %6, align 8, !tbaa !30
  store ptr %9, ptr %7, align 8, !tbaa !30
  %10 = load ptr, ptr %5, align 8, !tbaa !44
  %11 = getelementptr inbounds nuw %struct.FLAC__StreamMetadata, ptr %10, i32 0, i32 0
  %12 = load i32, ptr %11, align 8, !tbaa !46
  %13 = icmp eq i32 %12, 0
  br i1 %13, label %14, label %55

14:                                               ; preds = %3
  %15 = load ptr, ptr %5, align 8, !tbaa !44
  %16 = getelementptr inbounds nuw %struct.FLAC__StreamMetadata, ptr %15, i32 0, i32 3
  %17 = getelementptr inbounds nuw %struct.FLAC__StreamMetadata_StreamInfo, ptr %16, i32 0, i32 6
  %18 = load i32, ptr %17, align 8, !tbaa !48
  %19 = load ptr, ptr %7, align 8, !tbaa !30
  %20 = getelementptr inbounds nuw %struct.DecoderInstance, ptr %19, i32 0, i32 1
  store i32 %18, ptr %20, align 4, !tbaa !41
  %21 = load ptr, ptr %5, align 8, !tbaa !44
  %22 = getelementptr inbounds nuw %struct.FLAC__StreamMetadata, ptr %21, i32 0, i32 3
  %23 = getelementptr inbounds nuw %struct.FLAC__StreamMetadata_StreamInfo, ptr %22, i32 0, i32 5
  %24 = load i32, ptr %23, align 4, !tbaa !48
  %25 = load ptr, ptr %7, align 8, !tbaa !30
  %26 = getelementptr inbounds nuw %struct.DecoderInstance, ptr %25, i32 0, i32 0
  store i32 %24, ptr %26, align 4, !tbaa !42
  %27 = load ptr, ptr %5, align 8, !tbaa !44
  %28 = getelementptr inbounds nuw %struct.FLAC__StreamMetadata, ptr %27, i32 0, i32 3
  %29 = getelementptr inbounds nuw %struct.FLAC__StreamMetadata_StreamInfo, ptr %28, i32 0, i32 4
  %30 = load i32, ptr %29, align 8, !tbaa !48
  %31 = load ptr, ptr %7, align 8, !tbaa !30
  %32 = getelementptr inbounds nuw %struct.DecoderInstance, ptr %31, i32 0, i32 2
  store i32 %30, ptr %32, align 4, !tbaa !43
  %33 = load ptr, ptr %7, align 8, !tbaa !30
  %34 = getelementptr inbounds nuw %struct.DecoderInstance, ptr %33, i32 0, i32 0
  %35 = load i32, ptr %34, align 4, !tbaa !42
  %36 = icmp ne i32 %35, 1
  br i1 %36, label %37, label %45

37:                                               ; preds = %14
  %38 = load ptr, ptr %7, align 8, !tbaa !30
  %39 = getelementptr inbounds nuw %struct.DecoderInstance, ptr %38, i32 0, i32 0
  %40 = load i32, ptr %39, align 4, !tbaa !42
  %41 = icmp ne i32 %40, 2
  br i1 %41, label %42, label %45

42:                                               ; preds = %37
  %43 = load ptr, ptr %7, align 8, !tbaa !30
  %44 = getelementptr inbounds nuw %struct.DecoderInstance, ptr %43, i32 0, i32 3
  store i32 1, ptr %44, align 4, !tbaa !31
  store i32 1, ptr %8, align 4
  br label %56

45:                                               ; preds = %37, %14
  %46 = load ptr, ptr %7, align 8, !tbaa !30
  %47 = getelementptr inbounds nuw %struct.DecoderInstance, ptr %46, i32 0, i32 2
  %48 = load i32, ptr %47, align 4, !tbaa !43
  %49 = call i32 @grabbag__replaygain_is_valid_sample_frequency(i32 noundef %48)
  %50 = icmp ne i32 %49, 0
  br i1 %50, label %54, label %51

51:                                               ; preds = %45
  %52 = load ptr, ptr %7, align 8, !tbaa !30
  %53 = getelementptr inbounds nuw %struct.DecoderInstance, ptr %52, i32 0, i32 3
  store i32 1, ptr %53, align 4, !tbaa !31
  store i32 1, ptr %8, align 4
  br label %56

54:                                               ; preds = %45
  br label %55

55:                                               ; preds = %54, %3
  store i32 0, ptr %8, align 4
  br label %56

56:                                               ; preds = %55, %51, %42
  call void @llvm.lifetime.end.p0(i64 8, ptr %7) #8
  %57 = load i32, ptr %8, align 4
  switch i32 %57, label %59 [
    i32 0, label %58
    i32 1, label %58
  ]

58:                                               ; preds = %56, %56
  ret void

59:                                               ; preds = %56
  unreachable
}