; Function Attrs: nounwind sspstrong uwtable
define internal void @metadata_callback_(ptr readnone captures(none) %0, ptr noundef readonly captures(none) %1, ptr noundef writeonly captures(none) %2) #0 {
  %4 = load i32, ptr %1, align 8, !tbaa !37
  %5 = icmp eq i32 %4, 0
  br i1 %5, label %6, label %19

6:                                                ; preds = %3
  %7 = getelementptr inbounds nuw i8, ptr %1, i64 40
  %8 = load i32, ptr %7, align 8, !tbaa !39
  %9 = getelementptr inbounds nuw i8, ptr %2, i64 4
  store i32 %8, ptr %9, align 4, !tbaa !34
  %10 = getelementptr inbounds nuw i8, ptr %1, i64 36
  %11 = load i32, ptr %10, align 4, !tbaa !39
  store i32 %11, ptr %2, align 4, !tbaa !35
  %12 = getelementptr inbounds nuw i8, ptr %1, i64 32
  %13 = load i32, ptr %12, align 8, !tbaa !39
  %14 = getelementptr inbounds nuw i8, ptr %2, i64 8
  store i32 %13, ptr %14, align 4, !tbaa !36
  %.off = add i32 %11, -1
  %switch = icmp ult i32 %.off, 2
  br i1 %switch, label %15, label %.sink.split

15:                                               ; preds = %6
  %16 = zext i32 %13 to i64
  %17 = tail call i32 @ValidGainFrequency(i64 noundef %16) #14
  %.not14 = icmp eq i32 %17, 0
  br i1 %.not14, label %.sink.split, label %19

.sink.split:                                      ; preds = %15, %6
  %18 = getelementptr inbounds nuw i8, ptr %2, i64 12
  store i32 1, ptr %18, align 4, !tbaa !24
  br label %19

19:                                               ; preds = %.sink.split, %3, %15
  ret void
}